; Function Attrs: mustprogress uwtable
define hidden void @_ZN14array_rewriter6mk_mapEP9func_decljPKP4exprR7obj_refIS2_11ast_managerE(ptr noundef nonnull align 8 dereferenceable(22) %0, ptr noundef %1, i32 noundef %2, ptr noundef %3, ptr noundef nonnull align 8 dereferenceable(16) %4) local_unnamed_addr #3 align 2 personality ptr @__gxx_personality_v0 {
  %6 = alloca %class.parameter, align 8
  %7 = tail call noundef i32 @_ZN14array_rewriter11mk_map_coreEP9func_decljPKP4exprR7obj_refIS2_11ast_managerE(ptr noundef nonnull align 8 dereferenceable(22) %0, ptr noundef %1, i32 noundef %2, ptr noundef %3, ptr noundef nonnull align 8 dereferenceable(16) %4)
  %8 = icmp eq i32 %7, 5
  br i1 %8, label %9, label %30

9:                                                ; preds = %5
  call void @llvm.lifetime.start.p0(i64 16, ptr nonnull %6) #24
  store ptr %1, ptr %6, align 8, !tbaa !139
  %10 = getelementptr inbounds nuw i8, ptr %6, i64 8
  store i8 1, ptr %10, align 8, !tbaa !142
  %11 = getelementptr inbounds nuw i8, ptr %0, i64 8
  %12 = load ptr, ptr %11, align 8, !tbaa !26
  %13 = load i32, ptr %0, align 8, !tbaa !103
  %14 = invoke noundef ptr @_ZN11ast_manager6mk_appEiijPK9parameterjPKP4exprP4sort(ptr noundef nonnull align 8 dereferenceable(976) %12, i32 noundef %13, i32 noundef 5, i32 noundef 1, ptr noundef nonnull %6, i32 noundef %2, ptr noundef %3, ptr noundef null)
          to label %_ZN10array_util6mk_mapEP9func_decljPKP4expr.exit unwind label %15

15:                                               ; preds = %9
  %16 = landingpad { ptr, i32 }
          cleanup
  call void @_ZN9parameterD1Ev(ptr noundef nonnull align 8 dereferenceable(16) %6) #24
  call void @llvm.lifetime.end.p0(i64 16, ptr nonnull %6) #24
  resume { ptr, i32 } %16

_ZN10array_util6mk_mapEP9func_decljPKP4expr.exit: ; preds = %9
  call void @_ZN9parameterD1Ev(ptr noundef nonnull align 8 dereferenceable(16) %6) #24
  call void @llvm.lifetime.end.p0(i64 16, ptr nonnull %6) #24
  %.not.i = icmp eq ptr %14, null
  br i1 %.not.i, label %20, label %_ZN11ast_manager7inc_refEP3ast.exit.i

_ZN11ast_manager7inc_refEP3ast.exit.i:            ; preds = %_ZN10array_util6mk_mapEP9func_decljPKP4expr.exit
  %17 = getelementptr inbounds nuw i8, ptr %14, i64 8
  %18 = load i32, ptr %17, align 4, !tbaa !99
  %19 = add i32 %18, 1
  store i32 %19, ptr %17, align 4, !tbaa !99
  br label %20

20:                                               ; preds = %_ZN11ast_manager7inc_refEP3ast.exit.i, %_ZN10array_util6mk_mapEP9func_decljPKP4expr.exit
  %21 = load ptr, ptr %4, align 8, !tbaa !27
  %.not.i4.i = icmp eq ptr %21, null
  br i1 %.not.i4.i, label %_ZN7obj_refI4expr11ast_managerEaSEPS0_.exit, label %22

22:                                               ; preds = %20
  %23 = getelementptr inbounds nuw i8, ptr %4, i64 8
  %24 = load ptr, ptr %23, align 8, !tbaa !101
  %25 = getelementptr inbounds nuw i8, ptr %21, i64 8
  %26 = load i32, ptr %25, align 4, !tbaa !99
  %27 = add i32 %26, -1
  store i32 %27, ptr %25, align 4, !tbaa !99
  %28 = icmp eq i32 %27, 0
  br i1 %28, label %29, label %_ZN7obj_refI4expr11ast_managerEaSEPS0_.exit

29:                                               ; preds = %22
  call void @_ZN11ast_manager11delete_nodeEP3ast(ptr noundef nonnull align 8 dereferenceable(976) %24, ptr noundef nonnull %21)
  br label %_ZN7obj_refI4expr11ast_managerEaSEPS0_.exit

_ZN7obj_refI4expr11ast_managerEaSEPS0_.exit:      ; preds = %20, %22, %29
  store ptr %14, ptr %4, align 8, !tbaa !27
  br label %30

30:                                               ; preds = %_ZN7obj_refI4expr11ast_managerEaSEPS0_.exit, %5
  ret void
}